target datalayout = "e-m:e-p270:32:32-p271:32:32-p272:64:64-i64:64-i128:128-f80:128-n8:16:32:64-S128"
target triple = "x86_64-pc-linux-gnu"

@.str.14 = private unnamed_addr constant [3 x i8] c"!=\00", align 1
@.str.38 = private unnamed_addr constant [4 x i8] c"ptr\00", align 1
@.str.39 = private unnamed_addr constant [5 x i8] c"NULL\00", align 1
@.str.40 = private unnamed_addr constant [3 x i8] c"%p\00", align 1

; Function Attrs: nounwind uwtable
define i32 @test_ptr(ptr noundef %0, i32 noundef %1, ptr noundef %2, ptr noundef %3) #0 {
  %5 = alloca i32, align 4
  %6 = alloca ptr, align 8
  %7 = alloca i32, align 4
  %8 = alloca ptr, align 8
  %9 = alloca ptr, align 8
  store ptr %0, ptr %6, align 8, !tbaa !3
  store i32 %1, ptr %7, align 4, !tbaa !8
  store ptr %2, ptr %8, align 8, !tbaa !3
  store ptr %3, ptr %9, align 8, !tbaa !17
  %10 = load ptr, ptr %9, align 8, !tbaa !17
  %11 = icmp ne ptr %10, null
  br i1 %11, label %12, label %13

12:                                               ; preds = %4
  store i32 1, ptr %5, align 4
  br label %18

13:                                               ; preds = %4
  %14 = load ptr, ptr %6, align 8, !tbaa !3
  %15 = load i32, ptr %7, align 4, !tbaa !8
  %16 = load ptr, ptr %8, align 8, !tbaa !3
  %17 = load ptr, ptr %9, align 8, !tbaa !17
  call void (ptr, ptr, i32, ptr, ptr, ptr, ptr, ptr, ...) @test_fail_message(ptr noundef null, ptr noundef %14, i32 noundef %15, ptr noundef @.str.38, ptr noundef %16, ptr noundef @.str.39, ptr noundef @.str.14, ptr noundef @.str.40, ptr noundef %17)
  store i32 0, ptr %5, align 4
  br label %18

18:                                               ; preds = %13, %12
  %19 = load i32, ptr %5, align 4
  ret i32 %19
}