; Function Attrs: nounwind uwtable
define range(i32 0, 2) i32 @test_ptr(ptr noundef %0, i32 noundef %1, ptr noundef %2, ptr noundef readnone captures(address_is_null) %3) local_unnamed_addr #0 {
  %.not = icmp eq ptr %3, null
  br i1 %.not, label %5, label %6

5:                                                ; preds = %4
  tail call void (ptr, ptr, i32, ptr, ptr, ptr, ptr, ptr, ...) @test_fail_message(ptr poison, ptr noundef %0, i32 noundef %1, ptr noundef nonnull @.str.38, ptr noundef %2, ptr noundef nonnull @.str.39, ptr noundef nonnull @.str.14, ptr noundef nonnull @.str.40, ptr noundef null)
  br label %6

6:                                                ; preds = %4, %5
  %.0 = phi i32 [ 0, %5 ], [ 1, %4 ]
  ret i32 %.0
}